target datalayout = "e-m:e-p270:32:32-p271:32:32-p272:64:64-i64:64-i128:128-f80:128-n8:16:32:64-S128"
target triple = "x86_64-pc-linux-gnu"

%"struct.std::pair" = type { i32, i32 }

; Function Attrs: mustprogress nounwind uwtable
define linkonce_odr void @_ZNSt4pairIiiEC2IiiTnNSt9enable_ifIXaaclsr5_PCCPE22_MoveConstructiblePairIT_T0_EEclsr5_PCCPE30_ImplicitlyMoveConvertiblePairIS3_S4_EEEbE4typeELb1EEEOS3_OS4_(ptr noundef nonnull align 4 dereferenceable(8) %0, ptr noundef nonnull align 4 dereferenceable(4) %1, ptr noundef nonnull align 4 dereferenceable(4) %2) unnamed_addr #4 comdat align 2 {
  %4 = alloca ptr, align 8
  %5 = alloca ptr, align 8
  %6 = alloca ptr, align 8
  store ptr %0, ptr %4, align 8
  store ptr %1, ptr %5, align 8
  store ptr %2, ptr %6, align 8
  %7 = load ptr, ptr %4, align 8
  %8 = getelementptr inbounds nuw %"struct.std::pair", ptr %7, i32 0, i32 0
  %9 = load ptr, ptr %5, align 8
  %10 = load i32, ptr %9, align 4
  store i32 %10, ptr %8, align 4
  %11 = getelementptr inbounds nuw %"struct.std::pair", ptr %7, i32 0, i32 1
  %12 = load ptr, ptr %6, align 8
  %13 = load i32, ptr %12, align 4
  store i32 %13, ptr %11, align 4
  ret void
}

; Function Attrs: mustprogress uwtable
define linkonce_odr i64 @_ZSt9make_pairIiiESt4pairINSt25__strip_reference_wrapperINSt5decayIT_E4typeEE6__typeENS1_INS2_IT0_E4typeEE6__typeEEOS3_OS8_(ptr noundef nonnull align 4 dereferenceable(4) %0, ptr noundef nonnull align 4 dereferenceable(4) %1) #5 comdat {
  %3 = alloca %"struct.std::pair", align 4
  %4 = alloca ptr, align 8
  %5 = alloca ptr, align 8
  store ptr %0, ptr %4, align 8
  store ptr %1, ptr %5, align 8
  %6 = load ptr, ptr %4, align 8
  %7 = load ptr, ptr %5, align 8
  call void @_ZNSt4pairIiiEC2IiiTnNSt9enable_ifIXaaclsr5_PCCPE22_MoveConstructiblePairIT_T0_EEclsr5_PCCPE30_ImplicitlyMoveConvertiblePairIS3_S4_EEEbE4typeELb1EEEOS3_OS4_(ptr noundef nonnull align 4 dereferenceable(8) %3, ptr noundef nonnull align 4 dereferenceable(4) %6, ptr noundef nonnull align 4 dereferenceable(4) %7)
  %8 = load i64, ptr %3, align 4
  ret i64 %8
}

; Function Attrs: mustprogress uwtable
define i64 @_ZN10open_spiel10phantom_go21VirtualPointTo2DPointEt(i16 noundef zeroext %0) #5 {
  %2 = alloca %"struct.std::pair", align 4
  %3 = alloca i16, align 2
  %4 = alloca i32, align 4
  %5 = alloca i32, align 4
  %6 = alloca i32, align 4
  %7 = alloca i32, align 4
  %8 = alloca i32, align 4
  %9 = alloca i32, align 4
  store i16 %0, ptr %3, align 2
  %10 = load i16, ptr %3, align 2
  %11 = zext i16 %10 to i32
  %12 = icmp eq i32 %11, 0
  br i1 %12, label %17, label %13

13:                                               ; preds = %1
  %14 = load i16, ptr %3, align 2
  %15 = zext i16 %14 to i32
  %16 = icmp eq i32 %15, 442
  br i1 %16, label %17, label %19

17:                                               ; preds = %13, %1
  store i32 -1, ptr %4, align 4
  store i32 -1, ptr %5, align 4
  %18 = call i64 @_ZSt9make_pairIiiESt4pairINSt25__strip_reference_wrapperINSt5decayIT_E4typeEE6__typeENS1_INS2_IT0_E4typeEE6__typeEEOS3_OS8_(ptr noundef nonnull align 4 dereferenceable(4) %4, ptr noundef nonnull align 4 dereferenceable(4) %5)
  store i64 %18, ptr %2, align 4
  br label %31

19:                                               ; preds = %13
  %20 = load i16, ptr %3, align 2
  %21 = zext i16 %20 to i32
  %22 = sdiv i32 %21, 21
  store i32 %22, ptr %6, align 4
  %23 = load i16, ptr %3, align 2
  %24 = zext i16 %23 to i32
  %25 = srem i32 %24, 21
  store i32 %25, ptr %7, align 4
  %26 = load i32, ptr %6, align 4
  %27 = sub nsw i32 %26, 1
  store i32 %27, ptr %8, align 4
  %28 = load i32, ptr %7, align 4
  %29 = sub nsw i32 %28, 1
  store i32 %29, ptr %9, align 4
  %30 = call i64 @_ZSt9make_pairIiiESt4pairINSt25__strip_reference_wrapperINSt5decayIT_E4typeEE6__typeENS1_INS2_IT0_E4typeEE6__typeEEOS3_OS8_(ptr noundef nonnull align 4 dereferenceable(4) %8, ptr noundef nonnull align 4 dereferenceable(4) %9)
  store i64 %30, ptr %2, align 4
  br label %31

31:                                               ; preds = %19, %17
  %32 = load i64, ptr %2, align 4
  ret i64 %32
}

; Function Attrs: mustprogress uwtable
define noundef i32 @_ZN10open_spiel10phantom_go24VirtualPointToBoardPointEti(i16 noundef zeroext %0, i32 noundef %1) #5 {
  %3 = alloca i16, align 2
  %4 = alloca i32, align 4
  %5 = alloca %"struct.std::pair", align 4
  store i16 %0, ptr %3, align 2
  store i32 %1, ptr %4, align 4
  %6 = load i16, ptr %3, align 2
  %7 = call i64 @_ZN10open_spiel10phantom_go21VirtualPointTo2DPointEt(i16 noundef zeroext %6)
  store i64 %7, ptr %5, align 4
  %8 = getelementptr inbounds nuw %"struct.std::pair", ptr %5, i32 0, i32 0
  %9 = load i32, ptr %8, align 4
  %10 = load i32, ptr %4, align 4
  %11 = mul nsw i32 %9, %10
  %12 = getelementptr inbounds nuw %"struct.std::pair", ptr %5, i32 0, i32 1
  %13 = load i32, ptr %12, align 4
  %14 = add nsw i32 %11, %13
  ret i32 %14
}