; Function Attrs: mustprogress nofree norecurse nosync nounwind willreturn memory(none) uwtable
define noundef i32 @_ZN10open_spiel10phantom_go24VirtualPointToBoardPointEti(i16 noundef zeroext %0, i32 noundef %1) local_unnamed_addr #6 {
  switch i16 %0, label %3 [
    i16 442, label %_ZN10open_spiel10phantom_go21VirtualPointTo2DPointEt.exit
    i16 0, label %_ZN10open_spiel10phantom_go21VirtualPointTo2DPointEt.exit
  ]

3:                                                ; preds = %2
  %4 = udiv i16 %0, 21
  %.zext.i = zext nneg i16 %4 to i64
  %5 = urem i16 %0, 21
  %.zext16.i = zext nneg i16 %5 to i64
  %6 = add nuw nsw i64 %.zext.i, 4294967295
  %7 = shl nuw nsw i64 %.zext16.i, 32
  %.sroa.2.0.insert.ext.i8.i = add nsw i64 %7, -4294967296
  %.sroa.0.0.insert.ext.i10.i = and i64 %6, 4294967295
  %.sroa.0.0.insert.insert.i11.i = or disjoint i64 %.sroa.2.0.insert.ext.i8.i, %.sroa.0.0.insert.ext.i10.i
  br label %_ZN10open_spiel10phantom_go21VirtualPointTo2DPointEt.exit

_ZN10open_spiel10phantom_go21VirtualPointTo2DPointEt.exit: ; preds = %2, %2, %3
  %.sroa.0.0.i = phi i64 [ %.sroa.0.0.insert.insert.i11.i, %3 ], [ -1, %2 ], [ -1, %2 ]
  %.sroa.0.0.extract.trunc = trunc i64 %.sroa.0.0.i to i32
  %.sroa.2.0.extract.shift = lshr i64 %.sroa.0.0.i, 32
  %.sroa.2.0.extract.trunc = trunc nuw i64 %.sroa.2.0.extract.shift to i32
  %8 = mul nsw i32 %1, %.sroa.0.0.extract.trunc
  %9 = add nsw i32 %8, %.sroa.2.0.extract.trunc
  ret i32 %9
}